; Function Attrs: mustprogress uwtable
define hidden void @_ZN4lean21erase_irrelevant_coreERKNS_16elab_environmentERKNS_9local_ctxERKNS_4exprE(ptr dead_on_unwind noalias writable sret(%"class.lean::expr") align 8 %0, ptr noundef nonnull align 8 dereferenceable(8) %1, ptr noundef nonnull align 8 dereferenceable(8) %2, ptr noundef nonnull align 8 dereferenceable(8) %3) local_unnamed_addr #0 personality ptr @__gxx_personality_v0 {
  %5 = alloca %"class.lean::expr", align 8
  %6 = alloca %"class.lean::erase_irrelevant_fn", align 8
  call void @llvm.lifetime.start.p0(i64 1040, ptr nonnull %6) #17
  call void @_ZN4lean19erase_irrelevant_fnC2ERKNS_16elab_environmentERKNS_9local_ctxE(ptr noundef nonnull align 8 dereferenceable(1040) %6, ptr noundef nonnull align 8 dereferenceable(8) %1, ptr noundef nonnull align 8 dereferenceable(8) %2)
  call void @llvm.lifetime.start.p0(i64 8, ptr nonnull %5)
  invoke void @_ZN4lean19erase_irrelevant_fn5visitERKNS_4exprE(ptr dead_on_unwind nonnull writable sret(%"class.lean::expr") align 8 %5, ptr noundef nonnull align 8 dereferenceable(1040) %6, ptr noundef nonnull align 8 dereferenceable(8) %3)
          to label %.noexc unwind label %24

.noexc:                                           ; preds = %4
  invoke void @_ZN4lean19erase_irrelevant_fn6mk_letEjNS_4exprE(ptr dead_on_unwind writable sret(%"class.lean::expr") align 8 %0, ptr noundef nonnull align 8 dereferenceable(1040) %6, i32 noundef 0, ptr noundef nonnull %5)
          to label %7 unwind label %21

7:                                                ; preds = %.noexc
  %8 = load ptr, ptr %5, align 8, !tbaa !3, !noalias !8
  %9 = ptrtoint ptr %8 to i64
  %10 = and i64 %9, 1
  %.not.i.i.i = icmp eq i64 %10, 0
  br i1 %.not.i.i.i, label %11, label %23

11:                                               ; preds = %7
  %12 = load i32, ptr %8, align 4, !tbaa !11
  %13 = icmp sgt i32 %12, 1
  br i1 %13, label %14, label %16, !prof !14

14:                                               ; preds = %11
  %15 = add nsw i32 %12, -1
  store i32 %15, ptr %8, align 4, !tbaa !11
  br label %23

16:                                               ; preds = %11
  %.not.i.i.i.i = icmp eq i32 %12, 0
  br i1 %.not.i.i.i.i, label %23, label %17

17:                                               ; preds = %16
  invoke void @lean_dec_ref_cold(ptr noundef nonnull %8)
          to label %23 unwind label %18

18:                                               ; preds = %17
  %19 = landingpad { ptr, i32 }
          catch ptr null
  %20 = extractvalue { ptr, i32 } %19, 0
  call void @__clang_call_terminate(ptr %20) #18
  unreachable

21:                                               ; preds = %.noexc
  %22 = landingpad { ptr, i32 }
          cleanup
  call void @_ZN4lean10object_refD2Ev(ptr noundef nonnull align 8 dereferenceable(8) %5) #17
  br label %.body

23:                                               ; preds = %17, %16, %14, %7
  call void @llvm.lifetime.end.p0(i64 8, ptr nonnull %5)
  call void @_ZN4lean19erase_irrelevant_fnD2Ev(ptr noundef nonnull align 8 dereferenceable(1040) %6) #17
  call void @llvm.lifetime.end.p0(i64 1040, ptr nonnull %6) #17
  ret void

24:                                               ; preds = %4
  %25 = landingpad { ptr, i32 }
          cleanup
  br label %.body

.body:                                            ; preds = %21, %24
  %eh.lpad-body = phi { ptr, i32 } [ %25, %24 ], [ %22, %21 ]
  call void @_ZN4lean19erase_irrelevant_fnD2Ev(ptr noundef nonnull align 8 dereferenceable(1040) %6) #17
  call void @llvm.lifetime.end.p0(i64 1040, ptr nonnull %6) #17
  resume { ptr, i32 } %eh.lpad-body
}